ccollections
deque
p1
((lp2
Vhttp://adamdoupe.com
p3
aVhttp://adamdoupe.com/blog
p4
aVhttp://adamdoupe.com/blog/archives
p5
aVhttp://adamdoupe.com/blog/2009/04/03/doing-research/
p6
aVhttp://adamdoupe.com/blog/2009/04/07/enabling-total-dns-on-godaddy/
p7
aVhttp://adamdoupe.com/blog/2009/04/10/two-chicks-at-the-same-time/
p8
aVhttp://adamdoupe.com/blog/2009/05/05/another-fire-in-the-santa-barbara-hills/
p9
aVhttp://adamdoupe.com/blog/2010/10/22/configuring-linux-bridge-to-act-as-a-hub/
p10
aVhttp://adamdoupe.com/blog/2010/10/27/redirecting-a-folder-to-https-with-apaches-config-on-ubuntu/
p11
aVhttp://adamdoupe.com/blog/posts/2
p12
aVhttp://adamdoupe.com/blog/index.html
p13
aVhttp://adamdoupe.com/blog/2010/10/28/compiling-jpcap-on-64-bit-ubuntu-10-dot-10/
p14
aVhttp://adamdoupe.com/blog/2011/01/27/paper-review-saner-composing-static-and-dynamic-analysis-to-validate-sanitization-in-web-applications/
p15
aVhttp://adamdoupe.com/blog/2011/04/20/overview-of-execution-after-redirect-web-application-vulnerabilities/
p16
aVhttp://adamdoupe.com/blog/2013/04/03/some-classic-literature-recommendations/
p17
aVhttp://adamdoupe.com/blog/2013/04/10/picoctf-preparations/
p18
aVhttp://adamdoupe.com/blog/2013/07/16/ssh-to-server-in-same-directory/
p19
aVhttp://adamdoupe.com/blog/2013/09/02/back-that-data-up-a-cautionary-tale/
p20
aVhttp://adamdoupe.com/blog/2013/09/05/dedacota-toward-preventing-server-side-xss-via-automatic-code-and-data-separation/
p21
aVhttp://adamdoupe.com/blog/2013/09/10/agile-in-the-cs-classroom/
p22
aVhttp://adamdoupe.com/blog/2013/09/26/found-stored-xss-in-popular-dots-game/
p23
aVhttp://adamdoupe.com/media
p24
aVhttp://adamdoupe.com/publications
p25
aVhttp://adamdoupe.com/teaching
p26
aVhttp://adamdoupe.com/teaching/classes/cse591-security-and-vulnerability-analysis-s15
p27
aVhttp://adamdoupe.com/teaching/classes/cse591-security-and-vulnerability-analysis-s15/assignment_1.html
p28
aVhttp://adamdoupe.com/teaching/classes/cse591-security-and-vulnerability-analysis-s15/assignment_2.html
p29
aVhttp://adamdoupe.com/teaching/classes/cse591-security-and-vulnerability-analysis-s15/simple_assignment_2.html
p30
aVhttp://adamdoupe.com/teaching/classes/cse591-security-and-vulnerability-analysis-s15/assignment_3.html
p31
aVhttp://adamdoupe.com/teaching/classes/cse591-security-and-vulnerability-analysis-s15/papers.html
p32
aVhttp://adamdoupe.com/teaching/classes/cse591-security-and-vulnerability-analysis-s15/projects.html
p33
aVhttp://adamdoupe.com/teaching/classes/cse591-security-and-vulnerability-analysis-s15/assignments.html
p34
aVhttp://adamdoupe.com/teaching/classes/cse591-security-and-vulnerability-analysis-s15/syllabus.html
p35
aVhttp://adamdoupe.com/service
p36
aVhttp://adamdoupe.com/research
p37
aVhttp://adamdoupe.com/
p38
atRp39
.