ccollections
deque
p1
((lp2
S'http://adamdoupe.com/'
p3
aS'http://adamdoupe.com//blog'
p4
aS'http://adamdoupe.com//blog/archives'
p5
aS'http://adamdoupe.com//blog/2009/04/03/doing-research/'
p6
aS'http://adamdoupe.com//blog/2009/04/07/enabling-total-dns-on-godaddy/'
p7
aS'http://adamdoupe.com//blog/2009/04/10/two-chicks-at-the-same-time/'
p8
aS'http://adamdoupe.com//blog/2009/05/05/another-fire-in-the-santa-barbara-hills/'
p9
aS'http://adamdoupe.com//blog/2010/10/22/configuring-linux-bridge-to-act-as-a-hub/'
p10
aS'http://adamdoupe.com//blog/2010/10/27/redirecting-a-folder-to-https-with-apaches-config-on-ubuntu/'
p11
aS'http://adamdoupe.com//blog/posts/2'
p12
aS'http://adamdoupe.com//blog/index.html'
p13
aS'http://adamdoupe.com//blog/2010/10/28/compiling-jpcap-on-64-bit-ubuntu-10-dot-10/'
p14
aS'http://adamdoupe.com//blog/2011/01/27/paper-review-saner-composing-static-and-dynamic-analysis-to-validate-sanitization-in-web-applications/'
p15
aS'http://adamdoupe.com//blog/2011/04/20/overview-of-execution-after-redirect-web-application-vulnerabilities/'
p16
aS'http://adamdoupe.com//blog/2013/04/03/some-classic-literature-recommendations/'
p17
aS'http://adamdoupe.com//blog/2013/04/10/picoctf-preparations/'
p18
aS'http://adamdoupe.com//blog/2013/07/16/ssh-to-server-in-same-directory/'
p19
aS'http://adamdoupe.com//blog/2013/09/02/back-that-data-up-a-cautionary-tale/'
p20
aS'http://adamdoupe.com'
p21
aS'http://adamdoupe.com//blog/2013/09/05/dedacota-toward-preventing-server-side-xss-via-automatic-code-and-data-separation/'
p22
aS'http://adamdoupe.com//blog/2013/09/10/agile-in-the-cs-classroom/'
p23
aS'http://adamdoupe.com//blog/2013/09/26/found-stored-xss-in-popular-dots-game/'
p24
aS'http://adamdoupe.com//media'
p25
aS'http://adamdoupe.com//publications'
p26
aS'http://adamdoupe.com//teaching'
p27
aS'http://adamdoupe.com//teaching/classes/cse591-security-and-vulnerability-analysis-s15'
p28
aS'http://adamdoupe.com//teaching/classes/cse591-security-and-vulnerability-analysis-s15/assignment_1.html'
p29
aS'http://adamdoupe.com//teaching/classes/cse591-security-and-vulnerability-analysis-s15/assignment_2.html'
p30
aS'http://adamdoupe.com//teaching/classes/cse591-security-and-vulnerability-analysis-s15/assignment_3.html'
p31
aS'http://adamdoupe.com//teaching/classes/cse591-security-and-vulnerability-analysis-s15/papers.html'
p32
aS'http://adamdoupe.com//teaching/classes/cse591-security-and-vulnerability-analysis-s15/projects.html'
p33
aS'http://adamdoupe.com//teaching/classes/cse591-security-and-vulnerability-analysis-s15/assignments.html'
p34
aS'http://adamdoupe.com//teaching/classes/cse591-security-and-vulnerability-analysis-s15/syllabus.html'
p35
aS'http://adamdoupe.com//service'
p36
aS'http://adamdoupe.com//research'
p37
atRp38
.